target datalayout = "e-m:e-p270:32:32-p271:32:32-p272:64:64-i64:64-i128:128-f80:128-n8:16:32:64-S128"
target triple = "x86_64-pc-linux-gnu"

; Function Attrs: nounwind uwtable
define i32 @stbi__addints_valid(i32 noundef %0, i32 noundef %1) #0 {
  %3 = alloca i32, align 4
  %4 = alloca i32, align 4
  %5 = alloca i32, align 4
  store i32 %0, ptr %4, align 4, !tbaa !9
  store i32 %1, ptr %5, align 4, !tbaa !9
  %6 = load i32, ptr %4, align 4, !tbaa !9
  %7 = icmp sge i32 %6, 0
  %8 = zext i1 %7 to i32
  %9 = load i32, ptr %5, align 4, !tbaa !9
  %10 = icmp sge i32 %9, 0
  %11 = zext i1 %10 to i32
  %12 = icmp ne i32 %8, %11
  br i1 %12, label %13, label %14

13:                                               ; preds = %2
  store i32 1, ptr %3, align 4
  br label %32

14:                                               ; preds = %2
  %15 = load i32, ptr %4, align 4, !tbaa !9
  %16 = icmp slt i32 %15, 0
  br i1 %16, label %17, label %26

17:                                               ; preds = %14
  %18 = load i32, ptr %5, align 4, !tbaa !9
  %19 = icmp slt i32 %18, 0
  br i1 %19, label %20, label %26

20:                                               ; preds = %17
  %21 = load i32, ptr %4, align 4, !tbaa !9
  %22 = load i32, ptr %5, align 4, !tbaa !9
  %23 = sub nsw i32 -2147483648, %22
  %24 = icmp sge i32 %21, %23
  %25 = zext i1 %24 to i32
  store i32 %25, ptr %3, align 4
  br label %32

26:                                               ; preds = %17, %14
  %27 = load i32, ptr %4, align 4, !tbaa !9
  %28 = load i32, ptr %5, align 4, !tbaa !9
  %29 = sub nsw i32 2147483647, %28
  %30 = icmp sle i32 %27, %29
  %31 = zext i1 %30 to i32
  store i32 %31, ptr %3, align 4
  br label %32

32:                                               ; preds = %26, %20, %13
  %33 = load i32, ptr %3, align 4
  ret i32 %33
}