; Function Attrs: mustprogress nofree norecurse nosync nounwind willreturn memory(none) uwtable
define range(i32 0, 2) i32 @stbi__addints_valid(i32 noundef %0, i32 noundef %1) local_unnamed_addr #0 {
  %3 = xor i32 %1, %0
  %4 = icmp sgt i32 %3, -1
  br i1 %4, label %5, label %13

5:                                                ; preds = %2
  %6 = and i32 %1, %0
  %or.cond.not = icmp sgt i32 %6, -1
  br i1 %or.cond.not, label %10, label %7

7:                                                ; preds = %5
  %8 = sub nsw i32 -2147483648, %1
  %9 = icmp sge i32 %0, %8
  br label %13

10:                                               ; preds = %5
  %11 = sub nsw i32 2147483647, %1
  %12 = icmp sle i32 %0, %11
  br label %13

13:                                               ; preds = %2, %10, %7
  %.0.shrunk = phi i1 [ %9, %7 ], [ %12, %10 ], [ true, %2 ]
  %.0 = zext i1 %.0.shrunk to i32
  ret i32 %.0
}